target datalayout = "e-m:e-p270:32:32-p271:32:32-p272:64:64-i64:64-i128:128-f80:128-n8:16:32:64-S128"
target triple = "x86_64-pc-linux-gnu"

%"class.testing::UnitTest" = type { ptr, %"class.testing::internal::Mutex", ptr }
%"class.testing::internal::Mutex" = type { %"class.testing::internal::MutexBase" }
%"class.testing::internal::MutexBase" = type { %union.pthread_mutex_t, i8, i64 }
%union.pthread_mutex_t = type { %struct.__pthread_mutex_s }
%struct.__pthread_mutex_s = type { i32, i32, i32, i32, i32, i16, i16, %struct.__pthread_internal_list }
%struct.__pthread_internal_list = type { ptr, ptr }

@_ZTVN7testing8UnitTestE = dso_local unnamed_addr constant { [4 x ptr] } { [4 x ptr] [ptr null, ptr @_ZTIN7testing8UnitTestE, ptr @_ZN7testing8UnitTestD1Ev, ptr @_ZN7testing8UnitTestD0Ev] }, align 8
@_ZN7testing8internal12UnitTestImplC1EPNS_8UnitTestE = dso_local unnamed_addr alias void (ptr, ptr), ptr @_ZN7testing8internal12UnitTestImplC2EPNS_8UnitTestE

; Function Attrs: mustprogress uwtable
define dso_local void @_ZN7testing8UnitTestC2Ev(ptr noundef nonnull align 8 dereferenceable(72) %0) unnamed_addr #4 align 2 personality ptr @__gxx_personality_v0 {
  %2 = alloca ptr, align 8
  %3 = alloca ptr, align 8
  %4 = alloca i32, align 4
  store ptr %0, ptr %2, align 8, !tbaa !49
  %5 = load ptr, ptr %2, align 8
  store ptr getelementptr inbounds inrange(-16, 16) ({ [4 x ptr] }, ptr @_ZTVN7testing8UnitTestE, i32 0, i32 0, i32 2), ptr %5, align 8, !tbaa !27
  %6 = getelementptr inbounds nuw %"class.testing::UnitTest", ptr %5, i32 0, i32 1
  call void @_ZN7testing8internal5MutexC2Ev(ptr noundef nonnull align 8 dereferenceable(56) %6)
  %7 = invoke noalias noundef nonnull ptr @_Znwm(i64 noundef 608) #33
          to label %8 unwind label %11

8:                                                ; preds = %1
  invoke void @_ZN7testing8internal12UnitTestImplC1EPNS_8UnitTestE(ptr noundef nonnull align 8 dereferenceable(601) %7, ptr noundef %5)
          to label %9 unwind label %15

9:                                                ; preds = %8
  %10 = getelementptr inbounds nuw %"class.testing::UnitTest", ptr %5, i32 0, i32 2
  store ptr %7, ptr %10, align 8, !tbaa !51
  ret void

11:                                               ; preds = %1
  %12 = landingpad { ptr, i32 }
          cleanup
  %13 = extractvalue { ptr, i32 } %12, 0
  store ptr %13, ptr %3, align 8
  %14 = extractvalue { ptr, i32 } %12, 1
  store i32 %14, ptr %4, align 4
  br label %19

15:                                               ; preds = %8
  %16 = landingpad { ptr, i32 }
          cleanup
  %17 = extractvalue { ptr, i32 } %16, 0
  store ptr %17, ptr %3, align 8
  %18 = extractvalue { ptr, i32 } %16, 1
  store i32 %18, ptr %4, align 4
  call void @_ZdlPvm(ptr noundef %7, i64 noundef 608) #34
  br label %19

19:                                               ; preds = %15, %11
  call void @_ZN7testing8internal5MutexD2Ev(ptr noundef nonnull align 8 dereferenceable(56) %6) #3
  br label %20

20:                                               ; preds = %19
  %21 = load ptr, ptr %3, align 8
  %22 = load i32, ptr %4, align 4
  %23 = insertvalue { ptr, i32 } poison, ptr %21, 0
  %24 = insertvalue { ptr, i32 } %23, i32 %22, 1
  resume { ptr, i32 } %24
}